; Function Attrs: nounwind uwtable
define ptr @l_Array_mapMUnsafe_map___at___private_Lean_Meta_Instances_0__Lean_Meta_computeSynthOrder___spec__5___boxed(ptr noundef %0, ptr noundef %1, ptr noundef %2, ptr noundef %3, ptr noundef %4, ptr noundef %5, ptr noundef %6, ptr noundef %7, ptr noundef %8) local_unnamed_addr #1 {
  %10 = getelementptr i8, ptr %1, i64 8
  %.val20 = load i64, ptr %10, align 8, !tbaa !12
  %11 = ptrtoint ptr %1 to i64
  %12 = and i64 %11, 1
  %.not = icmp eq i64 %12, 0
  br i1 %.not, label %13, label %lean_dec.exit15

13:                                               ; preds = %9
  %14 = load i32, ptr %1, align 4, !tbaa !4
  %15 = icmp sgt i32 %14, 1
  br i1 %15, label %16, label %18, !prof !11

16:                                               ; preds = %13
  %17 = add nsw i32 %14, -1
  store i32 %17, ptr %1, align 4, !tbaa !4
  br label %lean_dec.exit15

18:                                               ; preds = %13
  %.not.i = icmp eq i32 %14, 0
  br i1 %.not.i, label %lean_dec.exit15, label %19

19:                                               ; preds = %18
  tail call void @lean_dec_ref_cold(ptr noundef nonnull %1) #6
  br label %lean_dec.exit15

lean_dec.exit15:                                  ; preds = %19, %18, %16, %9
  %20 = getelementptr i8, ptr %2, i64 8
  %.val = load i64, ptr %20, align 8, !tbaa !12
  %21 = ptrtoint ptr %2 to i64
  %22 = and i64 %21, 1
  %.not21 = icmp eq i64 %22, 0
  br i1 %.not21, label %23, label %lean_dec.exit14

23:                                               ; preds = %lean_dec.exit15
  %24 = load i32, ptr %2, align 4, !tbaa !4
  %25 = icmp sgt i32 %24, 1
  br i1 %25, label %26, label %28, !prof !11

26:                                               ; preds = %23
  %27 = add nsw i32 %24, -1
  store i32 %27, ptr %2, align 4, !tbaa !4
  br label %lean_dec.exit14

28:                                               ; preds = %23
  %.not.i16 = icmp eq i32 %24, 0
  br i1 %.not.i16, label %lean_dec.exit14, label %29

29:                                               ; preds = %28
  tail call void @lean_dec_ref_cold(ptr noundef nonnull %2) #6
  br label %lean_dec.exit14

lean_dec.exit14:                                  ; preds = %29, %28, %26, %lean_dec.exit15
  %30 = tail call ptr @l_Array_mapMUnsafe_map___at___private_Lean_Meta_Instances_0__Lean_Meta_computeSynthOrder___spec__5(ptr noundef %0, i64 noundef %.val20, i64 noundef %.val, ptr noundef %3, ptr noundef %4, ptr noundef %5, ptr noundef %6, ptr noundef %7, ptr noundef %8)
  %31 = ptrtoint ptr %0 to i64
  %32 = and i64 %31, 1
  %.not22 = icmp eq i64 %32, 0
  br i1 %.not22, label %33, label %lean_dec.exit

33:                                               ; preds = %lean_dec.exit14
  %34 = load i32, ptr %0, align 4, !tbaa !4
  %35 = icmp sgt i32 %34, 1
  br i1 %35, label %36, label %38, !prof !11

36:                                               ; preds = %33
  %37 = add nsw i32 %34, -1
  store i32 %37, ptr %0, align 4, !tbaa !4
  br label %lean_dec.exit

38:                                               ; preds = %33
  %.not.i18 = icmp eq i32 %34, 0
  br i1 %.not.i18, label %lean_dec.exit, label %39

39:                                               ; preds = %38
  tail call void @lean_dec_ref_cold(ptr noundef nonnull %0) #6
  br label %lean_dec.exit

lean_dec.exit:                                    ; preds = %39, %38, %36, %lean_dec.exit14
  ret ptr %30
}